target datalayout = "e-m:e-p270:32:32-p271:32:32-p272:64:64-i64:64-i128:128-f80:128-n8:16:32:64-S128"
target triple = "x86_64-pc-linux-gnu"

; Function Attrs: nounwind uwtable
define ptr @Extra_CommandGen(i32 noundef %0, i32 noundef %1, i32 noundef %2, i32 noundef %3, i32 noundef %4, i32 noundef %5, i32 noundef %6, i32 noundef %7, i32 noundef %8) #0 {
  %10 = alloca i32, align 4
  %11 = alloca i32, align 4
  %12 = alloca i32, align 4
  %13 = alloca i32, align 4
  %14 = alloca i32, align 4
  %15 = alloca i32, align 4
  %16 = alloca i32, align 4
  %17 = alloca i32, align 4
  %18 = alloca i32, align 4
  store i32 %0, ptr %10, align 4, !tbaa !3
  store i32 %1, ptr %11, align 4, !tbaa !3
  store i32 %2, ptr %12, align 4, !tbaa !3
  store i32 %3, ptr %13, align 4, !tbaa !3
  store i32 %4, ptr %14, align 4, !tbaa !3
  store i32 %5, ptr %15, align 4, !tbaa !3
  store i32 %6, ptr %16, align 4, !tbaa !3
  store i32 %7, ptr %17, align 4, !tbaa !3
  store i32 %8, ptr %18, align 4, !tbaa !3
  ret ptr null
}


!llvm.module.flags = !{!0, !1, !2}

!0 = !{i32 1, !"wchar_size", i32 4}
!1 = !{i32 8, !"PIC Level", i32 2}
!2 = !{i32 7, !"uwtable", i32 2}
!3 = !{!4, !4, i64 0}
!4 = !{!"int", !5, i64 0}
!5 = !{!"omnipotent char", !6, i64 0}
!6 = !{!"Simple C/C++ TBAA"}
